; ModuleID = 'source-C-CXX/41/1984.cpp'
source_filename = "source-C-CXX/41/1984.cpp"
target datalayout = "e-m:e-p270:32:32-p271:32:32-p272:64:64-i64:64-f80:128-n8:16:32:64-S128"
target triple = "x86_64-pc-linux-gnu"

%"class.std::ios_base::Init" = type { i8 }
%"class.std::basic_istream" = type { i32 (...)**, i64, %"class.std::basic_ios" }
%"class.std::basic_ios" = type { %"class.std::ios_base", %"class.std::basic_ostream"*, i8, i8, %"class.std::basic_streambuf"*, %"class.std::ctype"*, %"class.std::num_put"*, %"class.std::num_get"* }
%"class.std::ios_base" = type { i32 (...)**, i64, i64, i32, i32, i32, %"struct.std::ios_base::_Callback_list"*, %"struct.std::ios_base::_Words", [8 x %"struct.std::ios_base::_Words"], i32, %"struct.std::ios_base::_Words"*, %"class.std::locale" }
%"struct.std::ios_base::_Callback_list" = type { %"struct.std::ios_base::_Callback_list"*, void (i32, %"class.std::ios_base"*, i32)*, i32, i32 }
%"struct.std::ios_base::_Words" = type { i8*, i64 }
%"class.std::locale" = type { %"class.std::locale::_Impl"* }
%"class.std::locale::_Impl" = type { i32, %"class.std::locale::facet"**, i64, %"class.std::locale::facet"**, i8** }
%"class.std::locale::facet" = type <{ i32 (...)**, i32, [4 x i8] }>
%"class.std::basic_ostream" = type { i32 (...)**, %"class.std::basic_ios" }
%"class.std::basic_streambuf" = type { i32 (...)**, i8*, i8*, i8*, i8*, i8*, i8*, %"class.std::locale" }
%"class.std::ctype" = type <{ %"class.std::locale::facet.base", [4 x i8], %struct.__locale_struct*, i8, [7 x i8], i32*, i32*, i16*, i8, [256 x i8], [256 x i8], i8, [6 x i8] }>
%"class.std::locale::facet.base" = type <{ i32 (...)**, i32 }>
%struct.__locale_struct = type { [13 x %struct.__locale_data*], i16*, i32*, i32*, [13 x i8*] }
%struct.__locale_data = type opaque
%"class.std::num_put" = type { %"class.std::locale::facet.base", [4 x i8] }
%"class.std::num_get" = type { %"class.std::locale::facet.base", [4 x i8] }

@_ZStL8__ioinit = internal global %"class.std::ios_base::Init" zeroinitializer, align 1
@__dso_handle = external hidden global i8
@_ZSt3cin = external global %"class.std::basic_istream", align 8
@_ZSt4cout = external global %"class.std::basic_ostream", align 8
@.str = private unnamed_addr constant [2 x i8] c" \00", align 1
@llvm.global_ctors = appending global [1 x { i32, void ()*, i8* }] [{ i32, void ()*, i8* } { i32 65535, void ()* @_GLOBAL__sub_I_1984.cpp, i8* null }]

declare void @_ZNSt8ios_base4InitC1Ev(%"class.std::ios_base::Init"* nonnull align 1 dereferenceable(1)) unnamed_addr #0

; Function Attrs: nounwind
declare void @_ZNSt8ios_base4InitD1Ev(%"class.std::ios_base::Init"* nonnull align 1 dereferenceable(1)) unnamed_addr #1

; Function Attrs: nofree nounwind
declare i32 @__cxa_atexit(void (i8*)*, i8*, i8*) local_unnamed_addr #2

; Function Attrs: mustprogress norecurse sspstrong uwtable
define dso_local i32 @main() local_unnamed_addr #3 {
  %1 = alloca i32, align 4
  %2 = alloca i32, align 4
  %3 = alloca [100020 x i32], align 16
  %4 = bitcast i32* %1 to i8*
  call void @llvm.lifetime.start.p0i8(i64 4, i8* nonnull %4) #6
  %5 = bitcast i32* %2 to i8*
  call void @llvm.lifetime.start.p0i8(i64 4, i8* nonnull %5) #6
  %6 = bitcast [100020 x i32]* %3 to i8*
  call void @llvm.lifetime.start.p0i8(i64 400080, i8* nonnull %6) #6
  %7 = call nonnull align 8 dereferenceable(16) %"class.std::basic_istream"* @_ZNSirsERi(%"class.std::basic_istream"* nonnull align 8 dereferenceable(16) @_ZSt3cin, i32* nonnull align 4 dereferenceable(4) %1)
  %8 = load i32, i32* %1, align 4, !tbaa !5
  %9 = icmp slt i32 %8, 1
  br i1 %9, label %10, label %12

10:                                               ; preds = %0
  %11 = call nonnull align 8 dereferenceable(16) %"class.std::basic_istream"* @_ZNSirsERi(%"class.std::basic_istream"* nonnull align 8 dereferenceable(16) @_ZSt3cin, i32* nonnull align 4 dereferenceable(4) %2)
  br label %116

12:                                               ; preds = %0, %12
  %13 = phi i64 [ %16, %12 ], [ 1, %0 ]
  %14 = getelementptr inbounds [100020 x i32], [100020 x i32]* %3, i64 0, i64 %13
  %15 = call nonnull align 8 dereferenceable(16) %"class.std::basic_istream"* @_ZNSirsERi(%"class.std::basic_istream"* nonnull align 8 dereferenceable(16) @_ZSt3cin, i32* nonnull align 4 dereferenceable(4) %14)
  %16 = add nuw nsw i64 %13, 1
  %17 = load i32, i32* %1, align 4, !tbaa !5
  %18 = sext i32 %17 to i64
  %19 = icmp slt i64 %13, %18
  br i1 %19, label %12, label %20, !llvm.loop !9

20:                                               ; preds = %12
  %21 = call nonnull align 8 dereferenceable(16) %"class.std::basic_istream"* @_ZNSirsERi(%"class.std::basic_istream"* nonnull align 8 dereferenceable(16) @_ZSt3cin, i32* nonnull align 4 dereferenceable(4) %2)
  %22 = load i32, i32* %2, align 4
  br i1 %9, label %116, label %27

23:                                               ; preds = %111
  %24 = icmp sgt i32 %113, 1
  br i1 %24, label %25, label %116

25:                                               ; preds = %23
  %26 = zext i32 %113 to i64
  br label %122

27:                                               ; preds = %20, %111
  %28 = phi i32 [ %113, %111 ], [ %8, %20 ]
  %29 = phi i32 [ %114, %111 ], [ 1, %20 ]
  %30 = sext i32 %29 to i64
  %31 = getelementptr inbounds [100020 x i32], [100020 x i32]* %3, i64 0, i64 %30
  %32 = load i32, i32* %31, align 4, !tbaa !5
  %33 = icmp eq i32 %32, %22
  br i1 %33, label %34, label %111

34:                                               ; preds = %27
  %35 = add nsw i32 %28, -1
  %36 = icmp slt i32 %29, %28
  br i1 %36, label %37, label %109

37:                                               ; preds = %34
  %38 = sext i32 %28 to i64
  %39 = sub nsw i64 %38, %30
  %40 = icmp ult i64 %39, 8
  br i1 %40, label %100, label %41

41:                                               ; preds = %37
  %42 = and i64 %39, -8
  %43 = add nsw i64 %42, %30
  %44 = add nsw i64 %42, -8
  %45 = lshr exact i64 %44, 3
  %46 = add nuw nsw i64 %45, 1
  %47 = and i64 %46, 1
  %48 = icmp eq i64 %44, 0
  br i1 %48, label %82, label %49

49:                                               ; preds = %41
  %50 = and i64 %46, 4611686018427387902
  br label %51

51:                                               ; preds = %51, %49
  %52 = phi i64 [ 0, %49 ], [ %79, %51 ]
  %53 = phi i64 [ %50, %49 ], [ %80, %51 ]
  %54 = add i64 %52, %30
  %55 = add nsw i64 %54, 1
  %56 = getelementptr inbounds [100020 x i32], [100020 x i32]* %3, i64 0, i64 %55
  %57 = bitcast i32* %56 to <4 x i32>*
  %58 = load <4 x i32>, <4 x i32>* %57, align 4, !tbaa !5
  %59 = getelementptr inbounds i32, i32* %56, i64 4
  %60 = bitcast i32* %59 to <4 x i32>*
  %61 = load <4 x i32>, <4 x i32>* %60, align 4, !tbaa !5
  %62 = getelementptr inbounds [100020 x i32], [100020 x i32]* %3, i64 0, i64 %54
  %63 = bitcast i32* %62 to <4 x i32>*
  store <4 x i32> %58, <4 x i32>* %63, align 4, !tbaa !5
  %64 = getelementptr inbounds i32, i32* %62, i64 4
  %65 = bitcast i32* %64 to <4 x i32>*
  store <4 x i32> %61, <4 x i32>* %65, align 4, !tbaa !5
  %66 = or i64 %52, 8
  %67 = add i64 %66, %30
  %68 = add nsw i64 %67, 1
  %69 = getelementptr inbounds [100020 x i32], [100020 x i32]* %3, i64 0, i64 %68
  %70 = bitcast i32* %69 to <4 x i32>*
  %71 = load <4 x i32>, <4 x i32>* %70, align 4, !tbaa !5
  %72 = getelementptr inbounds i32, i32* %69, i64 4
  %73 = bitcast i32* %72 to <4 x i32>*
  %74 = load <4 x i32>, <4 x i32>* %73, align 4, !tbaa !5
  %75 = getelementptr inbounds [100020 x i32], [100020 x i32]* %3, i64 0, i64 %67
  %76 = bitcast i32* %75 to <4 x i32>*
  store <4 x i32> %71, <4 x i32>* %76, align 4, !tbaa !5
  %77 = getelementptr inbounds i32, i32* %75, i64 4
  %78 = bitcast i32* %77 to <4 x i32>*
  store <4 x i32> %74, <4 x i32>* %78, align 4, !tbaa !5
  %79 = add nuw i64 %52, 16
  %80 = add i64 %53, -2
  %81 = icmp eq i64 %80, 0
  br i1 %81, label %82, label %51, !llvm.loop !11

82:                                               ; preds = %51, %41
  %83 = phi i64 [ 0, %41 ], [ %79, %51 ]
  %84 = icmp eq i64 %47, 0
  br i1 %84, label %98, label %85

85:                                               ; preds = %82
  %86 = add i64 %83, %30
  %87 = add nsw i64 %86, 1
  %88 = getelementptr inbounds [100020 x i32], [100020 x i32]* %3, i64 0, i64 %87
  %89 = bitcast i32* %88 to <4 x i32>*
  %90 = load <4 x i32>, <4 x i32>* %89, align 4, !tbaa !5
  %91 = getelementptr inbounds i32, i32* %88, i64 4
  %92 = bitcast i32* %91 to <4 x i32>*
  %93 = load <4 x i32>, <4 x i32>* %92, align 4, !tbaa !5
  %94 = getelementptr inbounds [100020 x i32], [100020 x i32]* %3, i64 0, i64 %86
  %95 = bitcast i32* %94 to <4 x i32>*
  store <4 x i32> %90, <4 x i32>* %95, align 4, !tbaa !5
  %96 = getelementptr inbounds i32, i32* %94, i64 4
  %97 = bitcast i32* %96 to <4 x i32>*
  store <4 x i32> %93, <4 x i32>* %97, align 4, !tbaa !5
  br label %98

98:                                               ; preds = %82, %85
  %99 = icmp eq i64 %39, %42
  br i1 %99, label %109, label %100

100:                                              ; preds = %37, %98
  %101 = phi i64 [ %30, %37 ], [ %43, %98 ]
  br label %102

102:                                              ; preds = %100, %102
  %103 = phi i64 [ %104, %102 ], [ %101, %100 ]
  %104 = add nsw i64 %103, 1
  %105 = getelementptr inbounds [100020 x i32], [100020 x i32]* %3, i64 0, i64 %104
  %106 = load i32, i32* %105, align 4, !tbaa !5
  %107 = getelementptr inbounds [100020 x i32], [100020 x i32]* %3, i64 0, i64 %103
  store i32 %106, i32* %107, align 4, !tbaa !5
  %108 = icmp eq i64 %104, %38
  br i1 %108, label %109, label %102, !llvm.loop !13

109:                                              ; preds = %102, %98, %34
  %110 = add nsw i32 %29, -1
  br label %111

111:                                              ; preds = %27, %109
  %112 = phi i32 [ %110, %109 ], [ %29, %27 ]
  %113 = phi i32 [ %35, %109 ], [ %28, %27 ]
  %114 = add nsw i32 %112, 1
  %115 = icmp slt i32 %112, %113
  br i1 %115, label %27, label %23, !llvm.loop !15

116:                                              ; preds = %122, %10, %20, %23
  %117 = phi i32 [ %113, %23 ], [ %8, %20 ], [ %8, %10 ], [ %113, %122 ]
  %118 = sext i32 %117 to i64
  %119 = getelementptr inbounds [100020 x i32], [100020 x i32]* %3, i64 0, i64 %118
  %120 = load i32, i32* %119, align 4, !tbaa !5
  %121 = call nonnull align 8 dereferenceable(8) %"class.std::basic_ostream"* @_ZNSolsEi(%"class.std::basic_ostream"* nonnull align 8 dereferenceable(8) @_ZSt4cout, i32 %120)
  call void @llvm.lifetime.end.p0i8(i64 400080, i8* nonnull %6) #6
  call void @llvm.lifetime.end.p0i8(i64 4, i8* nonnull %5) #6
  call void @llvm.lifetime.end.p0i8(i64 4, i8* nonnull %4) #6
  ret i32 0

122:                                              ; preds = %25, %122
  %123 = phi i64 [ 1, %25 ], [ %128, %122 ]
  %124 = getelementptr inbounds [100020 x i32], [100020 x i32]* %3, i64 0, i64 %123
  %125 = load i32, i32* %124, align 4, !tbaa !5
  %126 = call nonnull align 8 dereferenceable(8) %"class.std::basic_ostream"* @_ZNSolsEi(%"class.std::basic_ostream"* nonnull align 8 dereferenceable(8) @_ZSt4cout, i32 %125)
  %127 = call nonnull align 8 dereferenceable(8) %"class.std::basic_ostream"* @_ZSt16__ostream_insertIcSt11char_traitsIcEERSt13basic_ostreamIT_T0_ES6_PKS3_l(%"class.std::basic_ostream"* nonnull align 8 dereferenceable(8) %126, i8* nonnull getelementptr inbounds ([2 x i8], [2 x i8]* @.str, i64 0, i64 0), i64 1)
  %128 = add nuw nsw i64 %123, 1
  %129 = icmp eq i64 %128, %26
  br i1 %129, label %116, label %122, !llvm.loop !16
}

; Function Attrs: argmemonly mustprogress nofree nosync nounwind willreturn
declare void @llvm.lifetime.start.p0i8(i64 immarg, i8* nocapture) #4

declare nonnull align 8 dereferenceable(16) %"class.std::basic_istream"* @_ZNSirsERi(%"class.std::basic_istream"* nonnull align 8 dereferenceable(16), i32* nonnull align 4 dereferenceable(4)) local_unnamed_addr #0

declare nonnull align 8 dereferenceable(8) %"class.std::basic_ostream"* @_ZNSolsEi(%"class.std::basic_ostream"* nonnull align 8 dereferenceable(8), i32) local_unnamed_addr #0

; Function Attrs: argmemonly mustprogress nofree nosync nounwind willreturn
declare void @llvm.lifetime.end.p0i8(i64 immarg, i8* nocapture) #4

declare nonnull align 8 dereferenceable(8) %"class.std::basic_ostream"* @_ZSt16__ostream_insertIcSt11char_traitsIcEERSt13basic_ostreamIT_T0_ES6_PKS3_l(%"class.std::basic_ostream"* nonnull align 8 dereferenceable(8), i8*, i64) local_unnamed_addr #0

; Function Attrs: sspstrong uwtable
define internal void @_GLOBAL__sub_I_1984.cpp() #5 section ".text.startup" {
  tail call void @_ZNSt8ios_base4InitC1Ev(%"class.std::ios_base::Init"* nonnull align 1 dereferenceable(1) @_ZStL8__ioinit)
  %1 = tail call i32 @__cxa_atexit(void (i8*)* bitcast (void (%"class.std::ios_base::Init"*)* @_ZNSt8ios_base4InitD1Ev to void (i8*)*), i8* getelementptr inbounds (%"class.std::ios_base::Init", %"class.std::ios_base::Init"* @_ZStL8__ioinit, i64 0, i32 0), i8* nonnull @__dso_handle) #6
  ret void
}


!llvm.module.flags = !{!0, !1, !2, !3}
!llvm.ident = !{!4}

!0 = !{i32 1, !"wchar_size", i32 4}
!1 = !{i32 7, !"PIC Level", i32 2}
!2 = !{i32 7, !"PIE Level", i32 2}
!3 = !{i32 7, !"uwtable", i32 1}
!4 = !{!"clang version 13.0.0"}
!5 = !{!6, !6, i64 0}
!6 = !{!"int", !7, i64 0}
!7 = !{!"omnipotent char", !8, i64 0}
!8 = !{!"Simple C++ TBAA"}
!9 = distinct !{!9, !10}
!10 = !{!"llvm.loop.mustprogress"}
!11 = distinct !{!11, !10, !12}
!12 = !{!"llvm.loop.isvectorized", i32 1}
!13 = distinct !{!13, !10, !14, !12}
!14 = !{!"llvm.loop.unroll.runtime.disable"}
!15 = distinct !{!15, !10}
!16 = distinct !{!16, !10}
